target datalayout = "e-m:e-p270:32:32-p271:32:32-p272:64:64-i64:64-f80:128-n8:16:32:64-S128"
target triple = "x86_64-pc-linux-gnu"

@.str = private unnamed_addr constant [5 x i8] c"%d%d\00", align 1
@.str.1 = private unnamed_addr constant [3 x i8] c"%d\00", align 1
@.str.2 = private unnamed_addr constant [4 x i8] c"%d\0A\00", align 1

; Function Attrs: noinline nounwind uwtable
define dso_local i32 @main() #0 {
  %1 = alloca i32, align 4
  %2 = alloca i32, align 4
  %3 = alloca i32, align 4
  %4 = alloca i32, align 4
  %5 = alloca i32, align 4
  %6 = alloca i32, align 4
  %7 = alloca i32, align 4
  %8 = alloca i32, align 4
  %9 = alloca i32, align 4
  %10 = alloca [100 x [100 x i32]], align 16
  store i32 0, i32* %1, align 4
  %11 = call i32 (i8*, ...) @__isoc99_scanf(i8* getelementptr inbounds ([5 x i8], [5 x i8]* @.str, i64 0, i64 0), i32* %2, i32* %3)
  store i32 0, i32* %9, align 4
  store i32 0, i32* %6, align 4
  store i32 0, i32* %4, align 4
  br label %12

12:                                               ; preds = %35, %0
  %13 = load i32, i32* %4, align 4
  %14 = load i32, i32* %2, align 4
  %15 = icmp slt i32 %13, %14
  br i1 %15, label %16, label %38

16:                                               ; preds = %12
  store i32 0, i32* %5, align 4
  br label %17

17:                                               ; preds = %31, %16
  %18 = load i32, i32* %5, align 4
  %19 = load i32, i32* %3, align 4
  %20 = icmp slt i32 %18, %19
  br i1 %20, label %21, label %34

21:                                               ; preds = %17
  %22 = load i32, i32* %4, align 4
  %23 = sext i32 %22 to i64
  %24 = getelementptr inbounds [100 x [100 x i32]], [100 x [100 x i32]]* %10, i64 0, i64 %23
  %25 = load i32, i32* %5, align 4
  %26 = sext i32 %25 to i64
  %27 = getelementptr inbounds [100 x i32], [100 x i32]* %24, i64 0, i64 %26
  %28 = call i32 (i8*, ...) @__isoc99_scanf(i8* getelementptr inbounds ([3 x i8], [3 x i8]* @.str.1, i64 0, i64 0), i32* %27)
  %29 = load i32, i32* %6, align 4
  %30 = add nsw i32 %29, 1
  store i32 %30, i32* %6, align 4
  br label %31

31:                                               ; preds = %21
  %32 = load i32, i32* %5, align 4
  %33 = add nsw i32 %32, 1
  store i32 %33, i32* %5, align 4
  br label %17

34:                                               ; preds = %17
  br label %35

35:                                               ; preds = %34
  %36 = load i32, i32* %4, align 4
  %37 = add nsw i32 %36, 1
  store i32 %37, i32* %4, align 4
  br label %12

38:                                               ; preds = %12
  %39 = load i32, i32* %2, align 4
  %40 = sdiv i32 %39, 2
  store i32 %40, i32* %8, align 4
  %41 = load i32, i32* %3, align 4
  %42 = load i32, i32* %2, align 4
  %43 = icmp slt i32 %41, %42
  br i1 %43, label %44, label %47

44:                                               ; preds = %38
  %45 = load i32, i32* %3, align 4
  %46 = sdiv i32 %45, 2
  store i32 %46, i32* %8, align 4
  br label %47

47:                                               ; preds = %44, %38
  store i32 0, i32* %7, align 4
  br label %48

48:                                               ; preds = %151, %47
  %49 = load i32, i32* %7, align 4
  %50 = load i32, i32* %8, align 4
  %51 = icmp slt i32 %49, %50
  br i1 %51, label %52, label %154

52:                                               ; preds = %48
  %53 = load i32, i32* %7, align 4
  store i32 %53, i32* %5, align 4
  br label %54

54:                                               ; preds = %72, %52
  %55 = load i32, i32* %5, align 4
  %56 = load i32, i32* %3, align 4
  %57 = load i32, i32* %7, align 4
  %58 = sub nsw i32 %56, %57
  %59 = sub nsw i32 %58, 1
  %60 = icmp slt i32 %55, %59
  br i1 %60, label %61, label %75

61:                                               ; preds = %54
  %62 = load i32, i32* %7, align 4
  %63 = sext i32 %62 to i64
  %64 = getelementptr inbounds [100 x [100 x i32]], [100 x [100 x i32]]* %10, i64 0, i64 %63
  %65 = load i32, i32* %5, align 4
  %66 = sext i32 %65 to i64
  %67 = getelementptr inbounds [100 x i32], [100 x i32]* %64, i64 0, i64 %66
  %68 = load i32, i32* %67, align 4
  %69 = call i32 (i8*, ...) @printf(i8* getelementptr inbounds ([4 x i8], [4 x i8]* @.str.2, i64 0, i64 0), i32 %68)
  %70 = load i32, i32* %9, align 4
  %71 = add nsw i32 %70, 1
  store i32 %71, i32* %9, align 4
  br label %72

72:                                               ; preds = %61
  %73 = load i32, i32* %5, align 4
  %74 = add nsw i32 %73, 1
  store i32 %74, i32* %5, align 4
  br label %54

75:                                               ; preds = %54
  %76 = load i32, i32* %7, align 4
  store i32 %76, i32* %4, align 4
  br label %77

77:                                               ; preds = %98, %75
  %78 = load i32, i32* %4, align 4
  %79 = load i32, i32* %2, align 4
  %80 = load i32, i32* %7, align 4
  %81 = sub nsw i32 %79, %80
  %82 = sub nsw i32 %81, 1
  %83 = icmp slt i32 %78, %82
  br i1 %83, label %84, label %101

84:                                               ; preds = %77
  %85 = load i32, i32* %4, align 4
  %86 = sext i32 %85 to i64
  %87 = getelementptr inbounds [100 x [100 x i32]], [100 x [100 x i32]]* %10, i64 0, i64 %86
  %88 = load i32, i32* %3, align 4
  %89 = load i32, i32* %7, align 4
  %90 = sub nsw i32 %88, %89
  %91 = sub nsw i32 %90, 1
  %92 = sext i32 %91 to i64
  %93 = getelementptr inbounds [100 x i32], [100 x i32]* %87, i64 0, i64 %92
  %94 = load i32, i32* %93, align 4
  %95 = call i32 (i8*, ...) @printf(i8* getelementptr inbounds ([4 x i8], [4 x i8]* @.str.2, i64 0, i64 0), i32 %94)
  %96 = load i32, i32* %9, align 4
  %97 = add nsw i32 %96, 1
  store i32 %97, i32* %9, align 4
  br label %98

98:                                               ; preds = %84
  %99 = load i32, i32* %4, align 4
  %100 = add nsw i32 %99, 1
  store i32 %100, i32* %4, align 4
  br label %77

101:                                              ; preds = %77
  %102 = load i32, i32* %3, align 4
  %103 = load i32, i32* %7, align 4
  %104 = sub nsw i32 %102, %103
  %105 = sub nsw i32 %104, 1
  store i32 %105, i32* %5, align 4
  br label %106

106:                                              ; preds = %124, %101
  %107 = load i32, i32* %5, align 4
  %108 = load i32, i32* %7, align 4
  %109 = icmp sgt i32 %107, %108
  br i1 %109, label %110, label %127

110:                                              ; preds = %106
  %111 = load i32, i32* %2, align 4
  %112 = load i32, i32* %7, align 4
  %113 = sub nsw i32 %111, %112
  %114 = sub nsw i32 %113, 1
  %115 = sext i32 %114 to i64
  %116 = getelementptr inbounds [100 x [100 x i32]], [100 x [100 x i32]]* %10, i64 0, i64 %115
  %117 = load i32, i32* %5, align 4
  %118 = sext i32 %117 to i64
  %119 = getelementptr inbounds [100 x i32], [100 x i32]* %116, i64 0, i64 %118
  %120 = load i32, i32* %119, align 4
  %121 = call i32 (i8*, ...) @printf(i8* getelementptr inbounds ([4 x i8], [4 x i8]* @.str.2, i64 0, i64 0), i32 %120)
  %122 = load i32, i32* %9, align 4
  %123 = add nsw i32 %122, 1
  store i32 %123, i32* %9, align 4
  br label %124

124:                                              ; preds = %110
  %125 = load i32, i32* %5, align 4
  %126 = add nsw i32 %125, -1
  store i32 %126, i32* %5, align 4
  br label %106

127:                                              ; preds = %106
  %128 = load i32, i32* %2, align 4
  %129 = load i32, i32* %7, align 4
  %130 = sub nsw i32 %128, %129
  %131 = sub nsw i32 %130, 1
  store i32 %131, i32* %4, align 4
  br label %132

132:                                              ; preds = %147, %127
  %133 = load i32, i32* %4, align 4
  %134 = load i32, i32* %7, align 4
  %135 = icmp sgt i32 %133, %134
  br i1 %135, label %136, label %150

136:                                              ; preds = %132
  %137 = load i32, i32* %4, align 4
  %138 = sext i32 %137 to i64
  %139 = getelementptr inbounds [100 x [100 x i32]], [100 x [100 x i32]]* %10, i64 0, i64 %138
  %140 = load i32, i32* %7, align 4
  %141 = sext i32 %140 to i64
  %142 = getelementptr inbounds [100 x i32], [100 x i32]* %139, i64 0, i64 %141
  %143 = load i32, i32* %142, align 4
  %144 = call i32 (i8*, ...) @printf(i8* getelementptr inbounds ([4 x i8], [4 x i8]* @.str.2, i64 0, i64 0), i32 %143)
  %145 = load i32, i32* %9, align 4
  %146 = add nsw i32 %145, 1
  store i32 %146, i32* %9, align 4
  br label %147

147:                                              ; preds = %136
  %148 = load i32, i32* %4, align 4
  %149 = add nsw i32 %148, -1
  store i32 %149, i32* %4, align 4
  br label %132

150:                                              ; preds = %132
  br label %151

151:                                              ; preds = %150
  %152 = load i32, i32* %7, align 4
  %153 = add nsw i32 %152, 1
  store i32 %153, i32* %7, align 4
  br label %48

154:                                              ; preds = %48
  %155 = load i32, i32* %9, align 4
  %156 = load i32, i32* %6, align 4
  %157 = icmp ne i32 %155, %156
  br i1 %157, label %158, label %222

158:                                              ; preds = %154
  %159 = load i32, i32* %2, align 4
  %160 = load i32, i32* %3, align 4
  %161 = icmp sgt i32 %159, %160
  br i1 %161, label %162, label %183

162:                                              ; preds = %158
  %163 = load i32, i32* %7, align 4
  store i32 %163, i32* %4, align 4
  br label %164

164:                                              ; preds = %179, %162
  %165 = load i32, i32* %4, align 4
  %166 = load i32, i32* %2, align 4
  %167 = load i32, i32* %7, align 4
  %168 = sub nsw i32 %166, %167
  %169 = icmp slt i32 %165, %168
  br i1 %169, label %170, label %182

170:                                              ; preds = %164
  %171 = load i32, i32* %4, align 4
  %172 = sext i32 %171 to i64
  %173 = getelementptr inbounds [100 x [100 x i32]], [100 x [100 x i32]]* %10, i64 0, i64 %172
  %174 = load i32, i32* %8, align 4
  %175 = sext i32 %174 to i64
  %176 = getelementptr inbounds [100 x i32], [100 x i32]* %173, i64 0, i64 %175
  %177 = load i32, i32* %176, align 4
  %178 = call i32 (i8*, ...) @printf(i8* getelementptr inbounds ([4 x i8], [4 x i8]* @.str.2, i64 0, i64 0), i32 %177)
  br label %179

179:                                              ; preds = %170
  %180 = load i32, i32* %4, align 4
  %181 = add nsw i32 %180, 1
  store i32 %181, i32* %4, align 4
  br label %164

182:                                              ; preds = %164
  br label %183

183:                                              ; preds = %182, %158
  %184 = load i32, i32* %2, align 4
  %185 = load i32, i32* %3, align 4
  %186 = icmp slt i32 %184, %185
  br i1 %186, label %187, label %208

187:                                              ; preds = %183
  %188 = load i32, i32* %7, align 4
  store i32 %188, i32* %5, align 4
  br label %189

189:                                              ; preds = %204, %187
  %190 = load i32, i32* %5, align 4
  %191 = load i32, i32* %3, align 4
  %192 = load i32, i32* %7, align 4
  %193 = sub nsw i32 %191, %192
  %194 = icmp slt i32 %190, %193
  br i1 %194, label %195, label %207

195:                                              ; preds = %189
  %196 = load i32, i32* %8, align 4
  %197 = sext i32 %196 to i64
  %198 = getelementptr inbounds [100 x [100 x i32]], [100 x [100 x i32]]* %10, i64 0, i64 %197
  %199 = load i32, i32* %5, align 4
  %200 = sext i32 %199 to i64
  %201 = getelementptr inbounds [100 x i32], [100 x i32]* %198, i64 0, i64 %200
  %202 = load i32, i32* %201, align 4
  %203 = call i32 (i8*, ...) @printf(i8* getelementptr inbounds ([4 x i8], [4 x i8]* @.str.2, i64 0, i64 0), i32 %202)
  br label %204

204:                                              ; preds = %195
  %205 = load i32, i32* %5, align 4
  %206 = add nsw i32 %205, 1
  store i32 %206, i32* %5, align 4
  br label %189

207:                                              ; preds = %189
  br label %208

208:                                              ; preds = %207, %183
  %209 = load i32, i32* %2, align 4
  %210 = load i32, i32* %3, align 4
  %211 = icmp eq i32 %209, %210
  br i1 %211, label %212, label %221

212:                                              ; preds = %208
  %213 = load i32, i32* %8, align 4
  %214 = sext i32 %213 to i64
  %215 = getelementptr inbounds [100 x [100 x i32]], [100 x [100 x i32]]* %10, i64 0, i64 %214
  %216 = load i32, i32* %8, align 4
  %217 = sext i32 %216 to i64
  %218 = getelementptr inbounds [100 x i32], [100 x i32]* %215, i64 0, i64 %217
  %219 = load i32, i32* %218, align 4
  %220 = call i32 (i8*, ...) @printf(i8* getelementptr inbounds ([4 x i8], [4 x i8]* @.str.2, i64 0, i64 0), i32 %219)
  br label %221

221:                                              ; preds = %212, %208
  br label %222

222:                                              ; preds = %221, %154
  ret i32 0
}